; Function Attrs: mustprogress uwtable
define internal void @_ZNK19OpenColorIO_v2_4dev12_GLOBAL__N_118ExposureContrastOp8getCPUOpEb(ptr noalias nocapture writeonly sret(%"class.std::shared_ptr.54") align 8 %agg.result, ptr nocapture noundef nonnull readonly align 8 dereferenceable(24) %this, i1 zeroext %0) unnamed_addr #0 align 2 personality ptr @__gxx_personality_v0 {
entry:
  %ecOpData = alloca %"class.std::shared_ptr.29", align 8
  %ref.tmp = alloca %"class.std::shared_ptr.60", align 16
  %1 = getelementptr inbounds i8, ptr %this, i64 8
  %this.val = load ptr, ptr %1, align 8, !noalias !22
  %2 = getelementptr inbounds i8, ptr %this, i64 16
  %this.val1 = load ptr, ptr %2, align 8, !noalias !22
  call fastcc void @_ZNK19OpenColorIO_v2_4dev12_GLOBAL__N_118ExposureContrastOp6ecDataEv(ptr noalias nonnull align 8 %ecOpData, ptr %this.val, ptr %this.val1)
  invoke void @_ZN19OpenColorIO_v2_4dev30GetExposureContrastCPURendererERSt10shared_ptrIKNS_22ExposureContrastOpDataEE(ptr nonnull sret(%"class.std::shared_ptr.60") align 8 %ref.tmp, ptr noundef nonnull align 8 dereferenceable(16) %ecOpData)
          to label %_ZNSt10shared_ptrIN19OpenColorIO_v2_4dev5OpCPUEED2Ev.exit unwind label %lpad

_ZNSt10shared_ptrIN19OpenColorIO_v2_4dev5OpCPUEED2Ev.exit: ; preds = %entry
  %_M_refcount4.i.i = getelementptr inbounds i8, ptr %ref.tmp, i64 8
  %3 = load <2 x ptr>, ptr %ref.tmp, align 16
  store ptr null, ptr %_M_refcount4.i.i, align 8
  store <2 x ptr> %3, ptr %agg.result, align 8
  store ptr null, ptr %ref.tmp, align 16
  %_M_refcount.i.i3 = getelementptr inbounds i8, ptr %ecOpData, i64 8
  %4 = load ptr, ptr %_M_refcount.i.i3, align 8
  %cmp.not.i.i.i4 = icmp eq ptr %4, null
  br i1 %cmp.not.i.i.i4, label %_ZNSt10shared_ptrIKN19OpenColorIO_v2_4dev22ExposureContrastOpDataEED2Ev.exit, label %if.then.i.i.i5

if.then.i.i.i5:                                   ; preds = %_ZNSt10shared_ptrIN19OpenColorIO_v2_4dev5OpCPUEED2Ev.exit
  %_M_use_count.i.i.i.i6 = getelementptr inbounds i8, ptr %4, i64 8
  %5 = load atomic i64, ptr %_M_use_count.i.i.i.i6 acquire, align 8
  %cmp.i.i.i.i7 = icmp eq i64 %5, 4294967297
  %6 = trunc i64 %5 to i32
  br i1 %cmp.i.i.i.i7, label %if.then.i.i.i.i30, label %if.end.i.i.i.i8

if.then.i.i.i.i30:                                ; preds = %if.then.i.i.i5
  store i32 0, ptr %_M_use_count.i.i.i.i6, align 8
  %_M_weak_count.i.i.i.i31 = getelementptr inbounds i8, ptr %4, i64 12
  store i32 0, ptr %_M_weak_count.i.i.i.i31, align 4
  %vtable.i.i.i.i32 = load ptr, ptr %4, align 8
  %vfn.i.i.i.i33 = getelementptr inbounds i8, ptr %vtable.i.i.i.i32, i64 16
  %7 = load ptr, ptr %vfn.i.i.i.i33, align 8
  call void %7(ptr noundef nonnull align 8 dereferenceable(16) %4) #13
  br label %if.end8.sink.split.i.i.i.i25

if.end.i.i.i.i8:                                  ; preds = %if.then.i.i.i5
  %8 = load i8, ptr @__libc_single_threaded, align 1
  %tobool.i.not.i.i.i.i9 = icmp eq i8 %8, 0
  br i1 %tobool.i.not.i.i.i.i9, label %if.else.i.i.i.i.i29, label %if.then.i.i.i.i.i10

if.then.i.i.i.i.i10:                              ; preds = %if.end.i.i.i.i8
  %add.i.i.i.i.i11 = add nsw i32 %6, -1
  store i32 %add.i.i.i.i.i11, ptr %_M_use_count.i.i.i.i6, align 4
  br label %_ZN9__gnu_cxx27__exchange_and_add_dispatchEPii.exit.i.i.i.i12

if.else.i.i.i.i.i29:                              ; preds = %if.end.i.i.i.i8
  %9 = atomicrmw volatile add ptr %_M_use_count.i.i.i.i6, i32 -1 acq_rel, align 4
  br label %_ZN9__gnu_cxx27__exchange_and_add_dispatchEPii.exit.i.i.i.i12

_ZN9__gnu_cxx27__exchange_and_add_dispatchEPii.exit.i.i.i.i12: ; preds = %if.else.i.i.i.i.i29, %if.then.i.i.i.i.i10
  %retval.i.0.i.i.i.i13 = phi i32 [ %6, %if.then.i.i.i.i.i10 ], [ %9, %if.else.i.i.i.i.i29 ]
  %cmp6.i.i.i.i14 = icmp eq i32 %retval.i.0.i.i.i.i13, 1
  br i1 %cmp6.i.i.i.i14, label %if.then7.i.i.i.i15, label %_ZNSt10shared_ptrIKN19OpenColorIO_v2_4dev22ExposureContrastOpDataEED2Ev.exit

if.then7.i.i.i.i15:                               ; preds = %_ZN9__gnu_cxx27__exchange_and_add_dispatchEPii.exit.i.i.i.i12
  %vtable.i.i.i.i.i.i16 = load ptr, ptr %4, align 8
  %vfn.i.i.i.i.i.i17 = getelementptr inbounds i8, ptr %vtable.i.i.i.i.i.i16, i64 16
  %10 = load ptr, ptr %vfn.i.i.i.i.i.i17, align 8
  call void %10(ptr noundef nonnull align 8 dereferenceable(16) %4) #13
  %_M_weak_count.i.i.i.i.i.i18 = getelementptr inbounds i8, ptr %4, i64 12
  %11 = load i8, ptr @__libc_single_threaded, align 1
  %tobool.i.not.i.i.i.i.i.i19 = icmp eq i8 %11, 0
  br i1 %tobool.i.not.i.i.i.i.i.i19, label %if.else.i.i.i.i.i.i.i28, label %if.then.i.i.i.i.i.i.i20

if.then.i.i.i.i.i.i.i20:                          ; preds = %if.then7.i.i.i.i15
  %12 = load i32, ptr %_M_weak_count.i.i.i.i.i.i18, align 4
  %add.i.i.i.i.i.i.i21 = add nsw i32 %12, -1
  store i32 %add.i.i.i.i.i.i.i21, ptr %_M_weak_count.i.i.i.i.i.i18, align 4
  br label %_ZN9__gnu_cxx27__exchange_and_add_dispatchEPii.exit.i.i.i.i.i.i22

if.else.i.i.i.i.i.i.i28:                          ; preds = %if.then7.i.i.i.i15
  %13 = atomicrmw volatile add ptr %_M_weak_count.i.i.i.i.i.i18, i32 -1 acq_rel, align 4
  br label %_ZN9__gnu_cxx27__exchange_and_add_dispatchEPii.exit.i.i.i.i.i.i22

_ZN9__gnu_cxx27__exchange_and_add_dispatchEPii.exit.i.i.i.i.i.i22: ; preds = %if.else.i.i.i.i.i.i.i28, %if.then.i.i.i.i.i.i.i20
  %retval.i.0.i.i.i.i.i.i23 = phi i32 [ %12, %if.then.i.i.i.i.i.i.i20 ], [ %13, %if.else.i.i.i.i.i.i.i28 ]
  %cmp.i.i.i.i.i.i24 = icmp eq i32 %retval.i.0.i.i.i.i.i.i23, 1
  br i1 %cmp.i.i.i.i.i.i24, label %if.end8.sink.split.i.i.i.i25, label %_ZNSt10shared_ptrIKN19OpenColorIO_v2_4dev22ExposureContrastOpDataEED2Ev.exit

if.end8.sink.split.i.i.i.i25:                     ; preds = %_ZN9__gnu_cxx27__exchange_and_add_dispatchEPii.exit.i.i.i.i.i.i22, %if.then.i.i.i.i30
  %vtable2.i.i.i.i.i.i26 = load ptr, ptr %4, align 8
  %vfn3.i.i.i.i.i.i27 = getelementptr inbounds i8, ptr %vtable2.i.i.i.i.i.i26, i64 24
  %14 = load ptr, ptr %vfn3.i.i.i.i.i.i27, align 8
  call void %14(ptr noundef nonnull align 8 dereferenceable(16) %4) #13
  br label %_ZNSt10shared_ptrIKN19OpenColorIO_v2_4dev22ExposureContrastOpDataEED2Ev.exit

_ZNSt10shared_ptrIKN19OpenColorIO_v2_4dev22ExposureContrastOpDataEED2Ev.exit: ; preds = %_ZNSt10shared_ptrIN19OpenColorIO_v2_4dev5OpCPUEED2Ev.exit, %_ZN9__gnu_cxx27__exchange_and_add_dispatchEPii.exit.i.i.i.i12, %_ZN9__gnu_cxx27__exchange_and_add_dispatchEPii.exit.i.i.i.i.i.i22, %if.end8.sink.split.i.i.i.i25
  ret void

lpad:                                             ; preds = %entry
  %15 = landingpad { ptr, i32 }
          cleanup
  call void @_ZNSt10shared_ptrIKN19OpenColorIO_v2_4dev22ExposureContrastOpDataEED2Ev(ptr noundef nonnull align 8 dereferenceable(16) %ecOpData) #13
  resume { ptr, i32 } %15
}